; Function Attrs: nounwind uwtable
define internal noundef i32 @rcwt_write_trailer(ptr noundef readonly captures(none) %0) #0 {
  %2 = getelementptr inbounds nuw i8, ptr %0, i64 24
  %3 = load ptr, ptr %2, align 8, !tbaa !27
  %4 = load i32, ptr %3, align 8, !tbaa !28
  %5 = icmp sgt i32 %4, 0
  br i1 %5, label %6, label %rcwt_flush_cluster.exit

6:                                                ; preds = %1
  %7 = getelementptr inbounds nuw i8, ptr %0, i64 32
  %8 = load ptr, ptr %7, align 8, !tbaa !26
  %9 = getelementptr inbounds nuw i8, ptr %3, i64 8
  %10 = load i64, ptr %9, align 8, !tbaa !30
  tail call void @avio_wl64(ptr noundef %8, i64 noundef %10) #3
  %11 = load ptr, ptr %7, align 8, !tbaa !26
  %12 = load i32, ptr %3, align 8, !tbaa !28
  %13 = sdiv i32 %12, 3
  tail call void @avio_wl16(ptr noundef %11, i32 noundef %13) #3
  %14 = load ptr, ptr %7, align 8, !tbaa !26
  %15 = getelementptr inbounds nuw i8, ptr %3, i64 16
  %16 = load i32, ptr %3, align 8, !tbaa !28
  tail call void @avio_write(ptr noundef %14, ptr noundef nonnull %15, i32 noundef %16) #3
  br label %rcwt_flush_cluster.exit

rcwt_flush_cluster.exit:                          ; preds = %1, %6
  store i32 0, ptr %3, align 8, !tbaa !28
  %17 = getelementptr inbounds nuw i8, ptr %3, i64 8
  store i64 -9223372036854775808, ptr %17, align 8, !tbaa !30
  ret i32 0
}